target datalayout = "e-m:e-p270:32:32-p271:32:32-p272:64:64-i64:64-i128:128-f80:128-n8:16:32:64-S128"
target triple = "x86_64-pc-linux-gnu"

%"class.icu_77::UObject" = type { ptr }
%"class.icu_77::UnicodeString" = type { %"class.icu_77::Replaceable", %"union.icu_77::UnicodeString::StackBufferOrFields" }
%"class.icu_77::Replaceable" = type { %"class.icu_77::UObject" }
%"union.icu_77::UnicodeString::StackBufferOrFields" = type { %struct.anon.0, [32 x i8] }
%struct.anon.0 = type { i16, i32, i32, ptr }
%struct.anon = type { i16, [27 x i16] }
%"class.icu_77::FilteredNormalizer2" = type { %"class.icu_77::Normalizer2", ptr, ptr }
%"class.icu_77::Normalizer2" = type { %"class.icu_77::UObject" }

@_ZTVN6icu_777UObjectE = available_externally unnamed_addr constant { [5 x ptr] } { [5 x ptr] [ptr null, ptr @_ZTIN6icu_777UObjectE, ptr @_ZN6icu_777UObjectD1Ev, ptr @_ZN6icu_777UObjectD0Ev, ptr @_ZNK6icu_777UObject17getDynamicClassIDEv] }, align 8

; Function Attrs: inlinehint mustprogress nounwind uwtable
define linkonce_odr void @_ZN6icu_777UObjectC2Ev(ptr noundef nonnull align 8 dereferenceable(8) %0) unnamed_addr #3 comdat align 2 {
  %2 = alloca ptr, align 8
  store ptr %0, ptr %2, align 8, !tbaa !30
  %3 = load ptr, ptr %2, align 8
  store ptr getelementptr inbounds inrange(-16, 24) ({ [5 x ptr] }, ptr @_ZTVN6icu_777UObjectE, i32 0, i32 0, i32 2), ptr %3, align 8, !tbaa !12
  ret void
}

; Function Attrs: inlinehint mustprogress nounwind uwtable
define linkonce_odr void @_ZN6icu_7711Normalizer2C2Ev(ptr noundef nonnull align 8 dereferenceable(8) %0) unnamed_addr #3 comdat align 2 {
  %2 = alloca ptr, align 8
  store ptr %0, ptr %2, align 8, !tbaa !46
  %3 = load ptr, ptr %2, align 8
  call void @_ZN6icu_777UObjectC2Ev(ptr noundef nonnull align 8 dereferenceable(8) %3) #9
  store ptr getelementptr inbounds inrange(-16, 144) ({ [20 x ptr] }, ptr @_ZTVN6icu_7711Normalizer2E, i32 0, i32 0, i32 2), ptr %3, align 8, !tbaa !12
  ret void
}

; Function Attrs: inlinehint mustprogress nounwind uwtable
define linkonce_odr void @_ZN6icu_7711ReplaceableC2Ev(ptr noundef nonnull align 8 dereferenceable(8) %0) unnamed_addr #3 comdat align 2 {
  %2 = alloca ptr, align 8
  store ptr %0, ptr %2, align 8, !tbaa !58
  %3 = load ptr, ptr %2, align 8
  call void @_ZN6icu_777UObjectC2Ev(ptr noundef nonnull align 8 dereferenceable(8) %3) #9
  store ptr getelementptr inbounds inrange(-16, 88) ({ [13 x ptr] }, ptr @_ZTVN6icu_7711ReplaceableE, i32 0, i32 0, i32 2), ptr %3, align 8, !tbaa !12
  ret void
}

; Function Attrs: mustprogress nounwind uwtable
define linkonce_odr void @_ZN6icu_7719FilteredNormalizer2C2ERKNS_11Normalizer2ERKNS_10UnicodeSetE(ptr noundef nonnull align 8 dereferenceable(24) %0, ptr noundef nonnull align 8 dereferenceable(8) %1, ptr noundef nonnull align 8 dereferenceable(200) %2) unnamed_addr #0 comdat align 2 {
  %4 = alloca ptr, align 8
  %5 = alloca ptr, align 8
  %6 = alloca ptr, align 8
  store ptr %0, ptr %4, align 8, !tbaa !45
  store ptr %1, ptr %5, align 8, !tbaa !46
  store ptr %2, ptr %6, align 8, !tbaa !47
  %7 = load ptr, ptr %4, align 8
  call void @_ZN6icu_7711Normalizer2C2Ev(ptr noundef nonnull align 8 dereferenceable(8) %7) #9
  store ptr getelementptr inbounds inrange(-16, 144) ({ [20 x ptr] }, ptr @_ZTVN6icu_7719FilteredNormalizer2E, i32 0, i32 0, i32 2), ptr %7, align 8, !tbaa !12
  %8 = getelementptr inbounds nuw %"class.icu_77::FilteredNormalizer2", ptr %7, i32 0, i32 1
  %9 = load ptr, ptr %5, align 8, !tbaa !46
  store ptr %9, ptr %8, align 8, !tbaa !46
  %10 = getelementptr inbounds nuw %"class.icu_77::FilteredNormalizer2", ptr %7, i32 0, i32 2
  %11 = load ptr, ptr %6, align 8, !tbaa !47
  store ptr %11, ptr %10, align 8, !tbaa !47
  ret void
}

; Function Attrs: inlinehint mustprogress uwtable
define linkonce_odr void @_ZN6icu_7713UnicodeStringC2Ev(ptr noundef nonnull align 8 dereferenceable(64) %0) unnamed_addr #6 comdat align 2 {
  %2 = alloca ptr, align 8
  store ptr %0, ptr %2, align 8, !tbaa !8
  %3 = load ptr, ptr %2, align 8
  call void @_ZN6icu_7711ReplaceableC2Ev(ptr noundef nonnull align 8 dereferenceable(8) %3)
  store ptr getelementptr inbounds inrange(-16, 88) ({ [13 x ptr] }, ptr @_ZTVN6icu_7713UnicodeStringE, i32 0, i32 0, i32 2), ptr %3, align 8, !tbaa !12
  %4 = getelementptr inbounds nuw %"class.icu_77::UnicodeString", ptr %3, i32 0, i32 1
  %5 = getelementptr inbounds nuw %struct.anon, ptr %4, i32 0, i32 0
  store i16 2, ptr %5, align 8, !tbaa !32
  ret void
}

; Function Attrs: inlinehint mustprogress nounwind uwtable
define internal noundef signext i8 @_ZL9U_SUCCESS10UErrorCode(i32 noundef %0) #3 {
  %2 = alloca i32, align 4
  store i32 %0, ptr %2, align 4, !tbaa !33
  %3 = load i32, ptr %2, align 4, !tbaa !33
  %4 = icmp sle i32 %3, 0
  %5 = zext i1 %4 to i8
  ret i8 %5
}

; Function Attrs: inlinehint mustprogress nounwind uwtable
define internal noundef signext i8 @_ZL9U_FAILURE10UErrorCode(i32 noundef %0) #3 {
  %2 = alloca i32, align 4
  store i32 %0, ptr %2, align 4, !tbaa !33
  %3 = load i32, ptr %2, align 4, !tbaa !33
  %4 = icmp sgt i32 %3, 0
  %5 = zext i1 %4 to i8
  ret i8 %5
}

; Function Attrs: inlinehint mustprogress nounwind uwtable
define linkonce_odr noundef signext i8 @_ZNK6icu_7713UnicodeString7isBogusEv(ptr noundef nonnull align 8 dereferenceable(64) %0) #3 comdat align 2 {
  %2 = alloca ptr, align 8
  store ptr %0, ptr %2, align 8, !tbaa !8
  %3 = load ptr, ptr %2, align 8
  %4 = getelementptr inbounds nuw %"class.icu_77::UnicodeString", ptr %3, i32 0, i32 1
  %5 = getelementptr inbounds nuw %struct.anon.0, ptr %4, i32 0, i32 0
  %6 = load i16, ptr %5, align 8, !tbaa !32
  %7 = sext i16 %6 to i32
  %8 = and i32 %7, 1
  %9 = trunc i32 %8 to i8
  ret i8 %9
}

; Function Attrs: mustprogress uwtable
define void @_ZN6icu_7710Normalizer9normalizeERKNS_13UnicodeStringE18UNormalizationModeiRS1_R10UErrorCode(ptr noundef nonnull align 8 dereferenceable(64) %0, i32 noundef %1, i32 noundef %2, ptr noundef nonnull align 8 dereferenceable(64) %3, ptr noundef nonnull align 4 dereferenceable(4) %4) #1 align 2 personality ptr @__gxx_personality_v0 {
  %6 = alloca ptr, align 8
  %7 = alloca i32, align 4
  %8 = alloca i32, align 4
  %9 = alloca ptr, align 8
  %10 = alloca ptr, align 8
  %11 = alloca %"class.icu_77::UnicodeString", align 8
  %12 = alloca ptr, align 8
  %13 = alloca ptr, align 8
  %14 = alloca ptr, align 8
  %15 = alloca i32, align 4
  %16 = alloca %"class.icu_77::FilteredNormalizer2", align 8
  store ptr %0, ptr %6, align 8, !tbaa !8
  store i32 %1, ptr %7, align 4, !tbaa !10
  store i32 %2, ptr %8, align 4, !tbaa !37
  store ptr %3, ptr %9, align 8, !tbaa !8
  store ptr %4, ptr %10, align 8, !tbaa !49
  %17 = load ptr, ptr %6, align 8, !tbaa !8
  %18 = call noundef signext i8 @_ZNK6icu_7713UnicodeString7isBogusEv(ptr noundef nonnull align 8 dereferenceable(64) %17)
  %19 = icmp ne i8 %18, 0
  br i1 %19, label %25, label %20

20:                                               ; preds = %5
  %21 = load ptr, ptr %10, align 8, !tbaa !49
  %22 = load i32, ptr %21, align 4, !tbaa !33
  %23 = call noundef signext i8 @_ZL9U_FAILURE10UErrorCode(i32 noundef %22)
  %24 = icmp ne i8 %23, 0
  br i1 %24, label %25, label %34

25:                                               ; preds = %20, %5
  %26 = load ptr, ptr %9, align 8, !tbaa !8
  call void @_ZN6icu_7713UnicodeString10setToBogusEv(ptr noundef nonnull align 8 dereferenceable(64) %26)
  %27 = load ptr, ptr %10, align 8, !tbaa !49
  %28 = load i32, ptr %27, align 4, !tbaa !33
  %29 = call noundef signext i8 @_ZL9U_SUCCESS10UErrorCode(i32 noundef %28)
  %30 = icmp ne i8 %29, 0
  br i1 %30, label %31, label %33

31:                                               ; preds = %25
  %32 = load ptr, ptr %10, align 8, !tbaa !49
  store i32 1, ptr %32, align 4, !tbaa !33
  br label %33

33:                                               ; preds = %31, %25
  br label %106

34:                                               ; preds = %20
  call void @llvm.lifetime.start.p0(i64 64, ptr %11) #9
  call void @_ZN6icu_7713UnicodeStringC2Ev(ptr noundef nonnull align 8 dereferenceable(64) %11)
  call void @llvm.lifetime.start.p0(i64 8, ptr %12) #9
  %35 = load ptr, ptr %6, align 8, !tbaa !8
  %36 = load ptr, ptr %9, align 8, !tbaa !8
  %37 = icmp ne ptr %35, %36
  br i1 %37, label %38, label %40

38:                                               ; preds = %34
  %39 = load ptr, ptr %9, align 8, !tbaa !8
  store ptr %39, ptr %12, align 8, !tbaa !8
  br label %41

40:                                               ; preds = %34
  store ptr %11, ptr %12, align 8, !tbaa !8
  br label %41

41:                                               ; preds = %40, %38
  call void @llvm.lifetime.start.p0(i64 8, ptr %13) #9
  %42 = load i32, ptr %7, align 4, !tbaa !10
  %43 = load ptr, ptr %10, align 8, !tbaa !49
  %44 = invoke noundef ptr @_ZN6icu_7718Normalizer2Factory11getInstanceE18UNormalizationModeR10UErrorCode(i32 noundef %42, ptr noundef nonnull align 4 dereferenceable(4) %43)
          to label %45 unwind label %66

45:                                               ; preds = %41
  store ptr %44, ptr %13, align 8, !tbaa !46
  %46 = load ptr, ptr %10, align 8, !tbaa !49
  %47 = load i32, ptr %46, align 4, !tbaa !33
  %48 = invoke noundef signext i8 @_ZL9U_SUCCESS10UErrorCode(i32 noundef %47)
          to label %49 unwind label %66

49:                                               ; preds = %45
  %50 = icmp ne i8 %48, 0
  br i1 %50, label %51, label %90

51:                                               ; preds = %49
  %52 = load i32, ptr %8, align 4, !tbaa !37
  %53 = and i32 %52, 32
  %54 = icmp ne i32 %53, 0
  br i1 %54, label %55, label %79

55:                                               ; preds = %51
  call void @llvm.lifetime.start.p0(i64 24, ptr %16) #9
  %56 = load ptr, ptr %13, align 8, !tbaa !46
  %57 = load ptr, ptr %10, align 8, !tbaa !49
  %58 = invoke ptr @uniset_getUnicode32Instance_77(ptr noundef nonnull align 4 dereferenceable(4) %57)
          to label %59 unwind label %70

59:                                               ; preds = %55
  invoke void @_ZN6icu_7719FilteredNormalizer2C2ERKNS_11Normalizer2ERKNS_10UnicodeSetE(ptr noundef nonnull align 8 dereferenceable(24) %16, ptr noundef nonnull align 8 dereferenceable(8) %56, ptr noundef nonnull align 8 dereferenceable(200) %58)
          to label %60 unwind label %70

60:                                               ; preds = %59
  %61 = load ptr, ptr %6, align 8, !tbaa !8
  %62 = load ptr, ptr %12, align 8, !tbaa !8
  %63 = load ptr, ptr %10, align 8, !tbaa !49
  %64 = invoke noundef nonnull align 8 dereferenceable(64) ptr @_ZNK6icu_7719FilteredNormalizer29normalizeERKNS_13UnicodeStringERS1_R10UErrorCode(ptr noundef nonnull align 8 dereferenceable(24) %16, ptr noundef nonnull align 8 dereferenceable(64) %61, ptr noundef nonnull align 8 dereferenceable(64) %62, ptr noundef nonnull align 4 dereferenceable(4) %63)
          to label %65 unwind label %74

65:                                               ; preds = %60
  call void @_ZN6icu_7719FilteredNormalizer2D1Ev(ptr noundef nonnull align 8 dereferenceable(24) %16) #9
  call void @llvm.lifetime.end.p0(i64 24, ptr %16) #9
  br label %89

66:                                               ; preds = %99, %93, %79, %45, %41
  %67 = landingpad { ptr, i32 }
          cleanup
  %68 = extractvalue { ptr, i32 } %67, 0
  store ptr %68, ptr %14, align 8
  %69 = extractvalue { ptr, i32 } %67, 1
  store i32 %69, ptr %15, align 4
  br label %105

70:                                               ; preds = %59, %55
  %71 = landingpad { ptr, i32 }
          cleanup
  %72 = extractvalue { ptr, i32 } %71, 0
  store ptr %72, ptr %14, align 8
  %73 = extractvalue { ptr, i32 } %71, 1
  store i32 %73, ptr %15, align 4
  br label %78

74:                                               ; preds = %60
  %75 = landingpad { ptr, i32 }
          cleanup
  %76 = extractvalue { ptr, i32 } %75, 0
  store ptr %76, ptr %14, align 8
  %77 = extractvalue { ptr, i32 } %75, 1
  store i32 %77, ptr %15, align 4
  call void @_ZN6icu_7719FilteredNormalizer2D1Ev(ptr noundef nonnull align 8 dereferenceable(24) %16) #9
  br label %78

78:                                               ; preds = %74, %70
  call void @llvm.lifetime.end.p0(i64 24, ptr %16) #9
  br label %105

79:                                               ; preds = %51
  %80 = load ptr, ptr %13, align 8, !tbaa !46
  %81 = load ptr, ptr %6, align 8, !tbaa !8
  %82 = load ptr, ptr %12, align 8, !tbaa !8
  %83 = load ptr, ptr %10, align 8, !tbaa !49
  %84 = load ptr, ptr %80, align 8, !tbaa !12
  %85 = getelementptr inbounds ptr, ptr %84, i64 3
  %86 = load ptr, ptr %85, align 8
  %87 = invoke noundef nonnull align 8 dereferenceable(64) ptr %86(ptr noundef nonnull align 8 dereferenceable(8) %80, ptr noundef nonnull align 8 dereferenceable(64) %81, ptr noundef nonnull align 8 dereferenceable(64) %82, ptr noundef nonnull align 4 dereferenceable(4) %83)
          to label %88 unwind label %66

88:                                               ; preds = %79
  br label %89

89:                                               ; preds = %88, %65
  br label %90

90:                                               ; preds = %89, %49
  %91 = load ptr, ptr %12, align 8, !tbaa !8
  %92 = icmp eq ptr %91, %11
  br i1 %92, label %93, label %104

93:                                               ; preds = %90
  %94 = load ptr, ptr %10, align 8, !tbaa !49
  %95 = load i32, ptr %94, align 4, !tbaa !33
  %96 = invoke noundef signext i8 @_ZL9U_SUCCESS10UErrorCode(i32 noundef %95)
          to label %97 unwind label %66

97:                                               ; preds = %93
  %98 = icmp ne i8 %96, 0
  br i1 %98, label %99, label %104

99:                                               ; preds = %97
  %100 = load ptr, ptr %12, align 8, !tbaa !8
  %101 = load ptr, ptr %9, align 8, !tbaa !8
  %102 = invoke noundef nonnull align 8 dereferenceable(64) ptr @_ZN6icu_7713UnicodeStringaSERKS0_(ptr noundef nonnull align 8 dereferenceable(64) %101, ptr noundef nonnull align 8 dereferenceable(64) %100)
          to label %103 unwind label %66

103:                                              ; preds = %99
  br label %104

104:                                              ; preds = %103, %97, %90
  call void @llvm.lifetime.end.p0(i64 8, ptr %13) #9
  call void @llvm.lifetime.end.p0(i64 8, ptr %12) #9
  call void @_ZN6icu_7713UnicodeStringD1Ev(ptr noundef nonnull align 8 dereferenceable(64) %11) #9
  call void @llvm.lifetime.end.p0(i64 64, ptr %11) #9
  br label %106

105:                                              ; preds = %78, %66
  call void @llvm.lifetime.end.p0(i64 8, ptr %13) #9
  call void @llvm.lifetime.end.p0(i64 8, ptr %12) #9
  call void @_ZN6icu_7713UnicodeStringD1Ev(ptr noundef nonnull align 8 dereferenceable(64) %11) #9
  call void @llvm.lifetime.end.p0(i64 64, ptr %11) #9
  br label %107

106:                                              ; preds = %104, %33
  ret void

107:                                              ; preds = %105
  %108 = load ptr, ptr %14, align 8
  %109 = load i32, ptr %15, align 4
  %110 = insertvalue { ptr, i32 } poison, ptr %108, 0
  %111 = insertvalue { ptr, i32 } %110, i32 %109, 1
  resume { ptr, i32 } %111
}