; Function Attrs: mustprogress uwtable
define void @_ZN6icu_7710Normalizer9normalizeERKNS_13UnicodeStringE18UNormalizationModeiRS1_R10UErrorCode(ptr noundef nonnull align 8 dereferenceable(64) %0, i32 noundef %1, i32 noundef %2, ptr noundef nonnull align 8 dereferenceable(64) %3, ptr noundef nonnull align 4 dereferenceable(4) %4) local_unnamed_addr #1 align 2 personality ptr @__gxx_personality_v0 {
  %6 = alloca %"class.icu_77::UnicodeString", align 8
  %7 = alloca %"class.icu_77::FilteredNormalizer2", align 8
  %8 = getelementptr inbounds nuw i8, ptr %0, i64 8
  %9 = load i16, ptr %8, align 8, !tbaa !22
  %10 = and i16 %9, 1
  %.not = icmp eq i16 %10, 0
  %11 = load i32, ptr %4, align 4
  %12 = icmp slt i32 %11, 1
  %or.cond = select i1 %.not, i1 %12, i1 false
  br i1 %or.cond, label %17, label %13

13:                                               ; preds = %5
  tail call void @_ZN6icu_7713UnicodeString10setToBogusEv(ptr noundef nonnull align 8 dereferenceable(64) %3)
  %14 = load i32, ptr %4, align 4, !tbaa !24
  %15 = icmp sgt i32 %14, 0
  br i1 %15, label %52, label %16

16:                                               ; preds = %13
  store i32 1, ptr %4, align 4, !tbaa !24
  br label %52

17:                                               ; preds = %5
  call void @llvm.lifetime.start.p0(i64 64, ptr nonnull %6) #10
  store ptr getelementptr inbounds nuw inrange(-16, 88) (i8, ptr @_ZTVN6icu_7713UnicodeStringE, i64 16), ptr %6, align 8, !tbaa !3
  %18 = getelementptr inbounds nuw i8, ptr %6, i64 8
  store i16 2, ptr %18, align 8, !tbaa !22
  %.not31 = icmp eq ptr %0, %3
  %. = select i1 %.not31, ptr %6, ptr %3
  %19 = invoke noundef ptr @_ZN6icu_7718Normalizer2Factory11getInstanceE18UNormalizationModeR10UErrorCode(i32 noundef %1, ptr noundef nonnull align 4 dereferenceable(4) %4)
          to label %20 unwind label %32

20:                                               ; preds = %17
  %21 = load i32, ptr %4, align 4, !tbaa !24
  %22 = icmp sgt i32 %21, 0
  br i1 %22, label %44, label %23

23:                                               ; preds = %20
  %24 = and i32 %2, 32
  %.not33 = icmp eq i32 %24, 0
  br i1 %.not33, label %39, label %25

25:                                               ; preds = %23
  call void @llvm.lifetime.start.p0(i64 24, ptr nonnull %7) #10
  %26 = invoke ptr @uniset_getUnicode32Instance_77(ptr noundef nonnull align 4 dereferenceable(4) %4)
          to label %27 unwind label %34

27:                                               ; preds = %25
  store ptr getelementptr inbounds nuw inrange(-16, 144) (i8, ptr @_ZTVN6icu_7719FilteredNormalizer2E, i64 16), ptr %7, align 8, !tbaa !3
  %28 = getelementptr inbounds nuw i8, ptr %7, i64 8
  store ptr %19, ptr %28, align 8, !tbaa !28
  %29 = getelementptr inbounds nuw i8, ptr %7, i64 16
  store ptr %26, ptr %29, align 8, !tbaa !29
  %30 = invoke noundef nonnull align 8 dereferenceable(64) ptr @_ZNK6icu_7719FilteredNormalizer29normalizeERKNS_13UnicodeStringERS1_R10UErrorCode(ptr noundef nonnull align 8 dereferenceable(24) %7, ptr noundef nonnull align 8 dereferenceable(64) %0, ptr noundef nonnull align 8 dereferenceable(64) %., ptr noundef nonnull align 4 dereferenceable(4) %4)
          to label %31 unwind label %36

31:                                               ; preds = %27
  call void @_ZN6icu_7719FilteredNormalizer2D1Ev(ptr noundef nonnull align 8 dereferenceable(24) %7) #10
  call void @llvm.lifetime.end.p0(i64 24, ptr nonnull %7) #10
  br label %44

32:                                               ; preds = %48, %39, %17
  %33 = landingpad { ptr, i32 }
          cleanup
  br label %51

34:                                               ; preds = %25
  %35 = landingpad { ptr, i32 }
          cleanup
  br label %38

36:                                               ; preds = %27
  %37 = landingpad { ptr, i32 }
          cleanup
  call void @_ZN6icu_7719FilteredNormalizer2D1Ev(ptr noundef nonnull align 8 dereferenceable(24) %7) #10
  br label %38

38:                                               ; preds = %36, %34
  %.pn = phi { ptr, i32 } [ %37, %36 ], [ %35, %34 ]
  call void @llvm.lifetime.end.p0(i64 24, ptr nonnull %7) #10
  br label %51

39:                                               ; preds = %23
  %40 = load ptr, ptr %19, align 8, !tbaa !3
  %41 = getelementptr inbounds nuw i8, ptr %40, i64 24
  %42 = load ptr, ptr %41, align 8
  %43 = invoke noundef nonnull align 8 dereferenceable(64) ptr %42(ptr noundef nonnull align 8 dereferenceable(8) %19, ptr noundef nonnull align 8 dereferenceable(64) %0, ptr noundef nonnull align 8 dereferenceable(64) %., ptr noundef nonnull align 4 dereferenceable(4) %4)
          to label %44 unwind label %32

44:                                               ; preds = %31, %39, %20
  %45 = icmp ne ptr %., %6
  %46 = load i32, ptr %4, align 4
  %47 = icmp sgt i32 %46, 0
  %or.cond41 = select i1 %45, i1 true, i1 %47
  br i1 %or.cond41, label %50, label %48

48:                                               ; preds = %44
  %49 = invoke noundef nonnull align 8 dereferenceable(64) ptr @_ZN6icu_7713UnicodeStringaSERKS0_(ptr noundef nonnull align 8 dereferenceable(64) %3, ptr noundef nonnull align 8 dereferenceable(64) %.)
          to label %50 unwind label %32

50:                                               ; preds = %48, %44
  call void @_ZN6icu_7713UnicodeStringD1Ev(ptr noundef nonnull align 8 dereferenceable(64) %6) #10
  call void @llvm.lifetime.end.p0(i64 64, ptr nonnull %6) #10
  br label %52

51:                                               ; preds = %38, %32
  %.pn36 = phi { ptr, i32 } [ %33, %32 ], [ %.pn, %38 ]
  call void @_ZN6icu_7713UnicodeStringD1Ev(ptr noundef nonnull align 8 dereferenceable(64) %6) #10
  call void @llvm.lifetime.end.p0(i64 64, ptr nonnull %6) #10
  resume { ptr, i32 } %.pn36

52:                                               ; preds = %13, %16, %50
  ret void
}